; ModuleID = '28/147.c'
source_filename = "28/147.c"
target datalayout = "e-m:e-p270:32:32-p271:32:32-p272:64:64-i64:64-f80:128-n8:16:32:64-S128"
target triple = "x86_64-pc-linux-gnu"

@.str = private unnamed_addr constant [3 x i8] c"%d\00", align 1
@.str.1 = private unnamed_addr constant [4 x i8] c",%d\00", align 1

; Function Attrs: noinline nounwind uwtable
define dso_local void @main() #0 {
  %1 = alloca [3000 x i8], align 16
  %2 = alloca [50 x i8], align 16
  %3 = alloca i32, align 4
  %4 = alloca i32, align 4
  %5 = alloca i32, align 4
  %6 = bitcast [3000 x i8]* %1 to i8*
  call void @llvm.memset.p0i8.i64(i8* align 16 %6, i8 0, i64 3000, i1 false)
  %7 = bitcast [50 x i8]* %2 to i8*
  call void @llvm.memset.p0i8.i64(i8* align 16 %7, i8 0, i64 50, i1 false)
  store i32 0, i32* %5, align 4
  %8 = getelementptr inbounds [3000 x i8], [3000 x i8]* %1, i64 0, i64 0
  %9 = call i32 (i8*, ...) bitcast (i32 (...)* @gets to i32 (i8*, ...)*)(i8* %8)
  store i32 0, i32* %3, align 4
  br label %10

10:                                               ; preds = %76, %0
  %11 = load i32, i32* %3, align 4
  %12 = sext i32 %11 to i64
  %13 = getelementptr inbounds [3000 x i8], [3000 x i8]* %1, i64 0, i64 %12
  %14 = load i8, i8* %13, align 1
  %15 = sext i8 %14 to i32
  %16 = icmp ne i32 %15, 0
  br i1 %16, label %17, label %77

17:                                               ; preds = %10
  %18 = load i32, i32* %3, align 4
  %19 = sext i32 %18 to i64
  %20 = getelementptr inbounds [3000 x i8], [3000 x i8]* %1, i64 0, i64 %19
  %21 = load i8, i8* %20, align 1
  %22 = sext i8 %21 to i32
  %23 = icmp eq i32 %22, 32
  br i1 %23, label %24, label %27

24:                                               ; preds = %17
  %25 = load i32, i32* %3, align 4
  %26 = add nsw i32 %25, 1
  store i32 %26, i32* %3, align 4
  br label %76

27:                                               ; preds = %17
  store i32 0, i32* %4, align 4
  br label %28

28:                                               ; preds = %52, %27
  %29 = load i32, i32* %3, align 4
  %30 = sext i32 %29 to i64
  %31 = getelementptr inbounds [3000 x i8], [3000 x i8]* %1, i64 0, i64 %30
  %32 = load i8, i8* %31, align 1
  %33 = sext i8 %32 to i32
  %34 = icmp ne i32 %33, 32
  br i1 %34, label %35, label %42

35:                                               ; preds = %28
  %36 = load i32, i32* %3, align 4
  %37 = sext i32 %36 to i64
  %38 = getelementptr inbounds [3000 x i8], [3000 x i8]* %1, i64 0, i64 %37
  %39 = load i8, i8* %38, align 1
  %40 = sext i8 %39 to i32
  %41 = icmp ne i32 %40, 0
  br label %42

42:                                               ; preds = %35, %28
  %43 = phi i1 [ false, %28 ], [ %41, %35 ]
  br i1 %43, label %44, label %57

44:                                               ; preds = %42
  %45 = load i32, i32* %3, align 4
  %46 = sext i32 %45 to i64
  %47 = getelementptr inbounds [3000 x i8], [3000 x i8]* %1, i64 0, i64 %46
  %48 = load i8, i8* %47, align 1
  %49 = load i32, i32* %4, align 4
  %50 = sext i32 %49 to i64
  %51 = getelementptr inbounds [50 x i8], [50 x i8]* %2, i64 0, i64 %50
  store i8 %48, i8* %51, align 1
  br label %52

52:                                               ; preds = %44
  %53 = load i32, i32* %3, align 4
  %54 = add nsw i32 %53, 1
  store i32 %54, i32* %3, align 4
  %55 = load i32, i32* %4, align 4
  %56 = add nsw i32 %55, 1
  store i32 %56, i32* %4, align 4
  br label %28

57:                                               ; preds = %42
  %58 = load i32, i32* %4, align 4
  %59 = sext i32 %58 to i64
  %60 = getelementptr inbounds [50 x i8], [50 x i8]* %2, i64 0, i64 %59
  store i8 0, i8* %60, align 1
  %61 = load i32, i32* %5, align 4
  %62 = icmp eq i32 %61, 0
  br i1 %62, label %63, label %67

63:                                               ; preds = %57
  %64 = getelementptr inbounds [50 x i8], [50 x i8]* %2, i64 0, i64 0
  %65 = call i64 @strlen(i8* %64) #4
  %66 = call i32 (i8*, ...) @printf(i8* getelementptr inbounds ([3 x i8], [3 x i8]* @.str, i64 0, i64 0), i64 %65)
  br label %71

67:                                               ; preds = %57
  %68 = getelementptr inbounds [50 x i8], [50 x i8]* %2, i64 0, i64 0
  %69 = call i64 @strlen(i8* %68) #4
  %70 = call i32 (i8*, ...) @printf(i8* getelementptr inbounds ([4 x i8], [4 x i8]* @.str.1, i64 0, i64 0), i64 %69)
  br label %71

71:                                               ; preds = %67, %63
  %72 = load i32, i32* %3, align 4
  %73 = add nsw i32 %72, 1
  store i32 %73, i32* %3, align 4
  %74 = load i32, i32* %5, align 4
  %75 = add nsw i32 %74, 1
  store i32 %75, i32* %5, align 4
  br label %76

76:                                               ; preds = %71, %24
  br label %10

77:                                               ; preds = %10
  ret void
}

; Function Attrs: argmemonly nounwind willreturn
declare void @llvm.memset.p0i8.i64(i8* nocapture writeonly, i8, i64, i1 immarg) #1

declare dso_local i32 @gets(...) #2

declare dso_local i32 @printf(i8*, ...) #2

; Function Attrs: nounwind readonly
declare dso_local i64 @strlen(i8*) #3


!llvm.module.flags = !{!0}
!llvm.ident = !{!1}

!0 = !{i32 1, !"wchar_size", i32 4}
!1 = !{!"clang version 10.0.0-4ubuntu1 "}
